; Function Attrs: mustprogress nofree norecurse nosync nounwind willreturn memory(argmem: readwrite) uwtable
define void @_ZN32pxrInternal_v0_24__pxrReserved__17CameraUtilFramingC2ERKNS_8GfRect2iE(ptr nocapture noundef nonnull writeonly align 4 dereferenceable(36) %0, ptr nocapture noundef nonnull readonly align 4 dereferenceable(16) %1) unnamed_addr #1 align 2 {
  %3 = load i32, ptr %1, align 4
  %4 = sitofp i32 %3 to float
  %5 = getelementptr inbounds i8, ptr %1, i64 4
  %6 = load i32, ptr %5, align 4
  %7 = sitofp i32 %6 to float
  %8 = getelementptr inbounds nuw i8, ptr %1, i64 8
  %9 = load i32, ptr %8, align 4
  %10 = add nsw i32 %9, 1
  %11 = sitofp i32 %10 to float
  %12 = getelementptr inbounds i8, ptr %1, i64 12
  %13 = load i32, ptr %12, align 4
  %14 = add nsw i32 %13, 1
  %15 = sitofp i32 %14 to float
  store float %4, ptr %0, align 4
  %.sroa.211.0..sroa_idx = getelementptr inbounds i8, ptr %0, i64 4
  store float %7, ptr %.sroa.211.0..sroa_idx, align 4
  %.sroa.3.0..sroa_idx = getelementptr inbounds i8, ptr %0, i64 8
  store float %11, ptr %.sroa.3.0..sroa_idx, align 4
  %.sroa.4.0..sroa_idx = getelementptr inbounds i8, ptr %0, i64 12
  store float %15, ptr %.sroa.4.0..sroa_idx, align 4
  %16 = getelementptr inbounds nuw i8, ptr %0, i64 16
  tail call void @llvm.memcpy.p0.p0.i64(ptr noundef nonnull align 4 dereferenceable(16) %16, ptr noundef nonnull readonly align 4 dereferenceable(16) %1, i64 16, i1 false)
  %17 = getelementptr inbounds nuw i8, ptr %0, i64 32
  store float 1.000000e+00, ptr %17, align 4
  ret void
}